; Function Attrs: mustprogress uwtable
define void @u_vparseMessage_77(ptr noundef %0, ptr noundef %1, i32 noundef %2, ptr noundef %3, i32 noundef %4, ptr noundef captures(none) %5, ptr noundef %6) local_unnamed_addr #1 {
  %8 = alloca i32, align 4
  %9 = tail call ptr @umsg_open_77(ptr noundef %1, i32 noundef %2, ptr noundef %0, ptr noundef null, ptr noundef %6)
  call void @llvm.lifetime.start.p0(i64 4, ptr nonnull %8) #10
  store i32 0, ptr %8, align 4, !tbaa !32
  call void @umsg_vparse_77(ptr noundef %9, ptr noundef %3, i32 noundef %4, ptr noundef nonnull %8, ptr noundef %5, ptr noundef %6)
  %10 = icmp eq ptr %9, null
  br i1 %10, label %umsg_close_77.exit, label %11

11:                                               ; preds = %7
  %12 = load ptr, ptr %9, align 8, !tbaa !34
  %13 = getelementptr inbounds nuw i8, ptr %12, i64 8
  %14 = load ptr, ptr %13, align 8
  call void %14(ptr noundef nonnull align 8 dereferenceable(512) %9) #10
  br label %umsg_close_77.exit

umsg_close_77.exit:                               ; preds = %7, %11
  call void @llvm.lifetime.end.p0(i64 4, ptr nonnull %8) #10
  ret void
}